target datalayout = "e-m:e-p270:32:32-p271:32:32-p272:64:64-i64:64-i128:128-f80:128-n8:16:32:64-S128"
target triple = "x86_64-pc-linux-gnu"

; Function Attrs: nounwind uwtable
define internal i32 @proj(double noundef %0, ptr noundef %1, ptr noundef %2, double noundef %3, ptr noundef %4, ptr noundef %5) #0 {
  %7 = alloca double, align 8
  %8 = alloca ptr, align 8
  %9 = alloca ptr, align 8
  %10 = alloca double, align 8
  %11 = alloca ptr, align 8
  %12 = alloca ptr, align 8
  %13 = alloca ptr, align 8
  %14 = alloca ptr, align 8
  %15 = alloca ptr, align 8
  %16 = alloca double, align 8
  %17 = alloca double, align 8
  %18 = alloca double, align 8
  %19 = alloca double, align 8
  %20 = alloca double, align 8
  %21 = alloca double, align 8
  %22 = alloca double, align 8
  %23 = alloca double, align 8
  %24 = alloca double, align 8
  %25 = alloca double, align 8
  %26 = alloca double, align 8
  %27 = alloca double, align 8
  %28 = alloca double, align 8
  %29 = alloca double, align 8
  %30 = alloca double, align 8
  %31 = alloca double, align 8
  %32 = alloca double, align 8
  store double %0, ptr %7, align 8, !tbaa !11
  store ptr %1, ptr %8, align 8, !tbaa !14
  store ptr %2, ptr %9, align 8, !tbaa !14
  store double %3, ptr %10, align 8, !tbaa !11
  store ptr %4, ptr %11, align 8, !tbaa !14
  store ptr %5, ptr %12, align 8, !tbaa !13
  call void @llvm.lifetime.start.p0(i64 8, ptr %13) #7
  store ptr null, ptr %13, align 8, !tbaa !16
  call void @llvm.lifetime.start.p0(i64 8, ptr %14) #7
  store ptr null, ptr %14, align 8, !tbaa !16
  call void @llvm.lifetime.start.p0(i64 8, ptr %15) #7
  store ptr null, ptr %15, align 8, !tbaa !16
  call void @llvm.lifetime.start.p0(i64 8, ptr %16) #7
  call void @llvm.lifetime.start.p0(i64 8, ptr %17) #7
  call void @llvm.lifetime.start.p0(i64 8, ptr %18) #7
  call void @llvm.lifetime.start.p0(i64 8, ptr %19) #7
  call void @llvm.lifetime.start.p0(i64 8, ptr %20) #7
  call void @llvm.lifetime.start.p0(i64 8, ptr %21) #7
  call void @llvm.lifetime.start.p0(i64 8, ptr %22) #7
  call void @llvm.lifetime.start.p0(i64 8, ptr %23) #7
  call void @llvm.lifetime.start.p0(i64 8, ptr %24) #7
  call void @llvm.lifetime.start.p0(i64 8, ptr %25) #7
  call void @llvm.lifetime.start.p0(i64 8, ptr %26) #7
  call void @llvm.lifetime.start.p0(i64 8, ptr %27) #7
  call void @llvm.lifetime.start.p0(i64 8, ptr %28) #7
  call void @llvm.lifetime.start.p0(i64 8, ptr %29) #7
  call void @llvm.lifetime.start.p0(i64 8, ptr %30) #7
  call void @llvm.lifetime.start.p0(i64 8, ptr %31) #7
  call void @llvm.lifetime.start.p0(i64 8, ptr %32) #7
  %33 = load ptr, ptr %8, align 8, !tbaa !14
  %34 = call ptr @N_VGetArrayPointer(ptr noundef %33)
  store ptr %34, ptr %13, align 8, !tbaa !16
  %35 = load ptr, ptr %9, align 8, !tbaa !14
  %36 = call ptr @N_VGetArrayPointer(ptr noundef %35)
  store ptr %36, ptr %14, align 8, !tbaa !16
  %37 = load ptr, ptr %13, align 8, !tbaa !16
  %38 = getelementptr inbounds double, ptr %37, i64 0
  %39 = load double, ptr %38, align 8, !tbaa !11
  store double %39, ptr %16, align 8, !tbaa !11
  %40 = load ptr, ptr %13, align 8, !tbaa !16
  %41 = getelementptr inbounds double, ptr %40, i64 1
  %42 = load double, ptr %41, align 8, !tbaa !11
  store double %42, ptr %17, align 8, !tbaa !11
  %43 = load ptr, ptr %13, align 8, !tbaa !16
  %44 = getelementptr inbounds double, ptr %43, i64 2
  %45 = load double, ptr %44, align 8, !tbaa !11
  store double %45, ptr %20, align 8, !tbaa !11
  %46 = load ptr, ptr %13, align 8, !tbaa !16
  %47 = getelementptr inbounds double, ptr %46, i64 3
  %48 = load double, ptr %47, align 8, !tbaa !11
  store double %48, ptr %21, align 8, !tbaa !11
  %49 = load double, ptr %16, align 8, !tbaa !11
  %50 = load double, ptr %16, align 8, !tbaa !11
  %51 = load double, ptr %17, align 8, !tbaa !11
  %52 = load double, ptr %17, align 8, !tbaa !11
  %53 = fmul double %51, %52
  %54 = call double @llvm.fmuladd.f64(double %49, double %50, double %53)
  %55 = call double @sqrt(double noundef %54) #7, !tbaa !4
  store double %55, ptr %32, align 8, !tbaa !11
  %56 = load double, ptr %16, align 8, !tbaa !11
  %57 = load double, ptr %32, align 8, !tbaa !11
  %58 = fdiv double %56, %57
  store double %58, ptr %18, align 8, !tbaa !11
  %59 = load double, ptr %17, align 8, !tbaa !11
  %60 = load double, ptr %32, align 8, !tbaa !11
  %61 = fdiv double %59, %60
  store double %61, ptr %19, align 8, !tbaa !11
  %62 = load double, ptr %20, align 8, !tbaa !11
  %63 = load double, ptr %19, align 8, !tbaa !11
  %64 = fmul double %62, %63
  %65 = load double, ptr %19, align 8, !tbaa !11
  %66 = load double, ptr %21, align 8, !tbaa !11
  %67 = load double, ptr %18, align 8, !tbaa !11
  %68 = fmul double %66, %67
  %69 = load double, ptr %19, align 8, !tbaa !11
  %70 = fmul double %68, %69
  %71 = fneg double %70
  %72 = call double @llvm.fmuladd.f64(double %64, double %65, double %71)
  store double %72, ptr %22, align 8, !tbaa !11
  %73 = load double, ptr %20, align 8, !tbaa !11
  %74 = fneg double %73
  %75 = load double, ptr %18, align 8, !tbaa !11
  %76 = fmul double %74, %75
  %77 = load double, ptr %19, align 8, !tbaa !11
  %78 = load double, ptr %21, align 8, !tbaa !11
  %79 = load double, ptr %18, align 8, !tbaa !11
  %80 = fmul double %78, %79
  %81 = load double, ptr %18, align 8, !tbaa !11
  %82 = fmul double %80, %81
  %83 = call double @llvm.fmuladd.f64(double %76, double %77, double %82)
  store double %83, ptr %23, align 8, !tbaa !11
  %84 = load double, ptr %18, align 8, !tbaa !11
  %85 = load double, ptr %16, align 8, !tbaa !11
  %86 = fsub double %84, %85
  %87 = load ptr, ptr %14, align 8, !tbaa !16
  %88 = getelementptr inbounds double, ptr %87, i64 0
  store double %86, ptr %88, align 8, !tbaa !11
  %89 = load double, ptr %19, align 8, !tbaa !11
  %90 = load double, ptr %17, align 8, !tbaa !11
  %91 = fsub double %89, %90
  %92 = load ptr, ptr %14, align 8, !tbaa !16
  %93 = getelementptr inbounds double, ptr %92, i64 1
  store double %91, ptr %93, align 8, !tbaa !11
  %94 = load double, ptr %22, align 8, !tbaa !11
  %95 = load double, ptr %20, align 8, !tbaa !11
  %96 = fsub double %94, %95
  %97 = load ptr, ptr %14, align 8, !tbaa !16
  %98 = getelementptr inbounds double, ptr %97, i64 2
  store double %96, ptr %98, align 8, !tbaa !11
  %99 = load double, ptr %23, align 8, !tbaa !11
  %100 = load double, ptr %21, align 8, !tbaa !11
  %101 = fsub double %99, %100
  %102 = load ptr, ptr %14, align 8, !tbaa !16
  %103 = getelementptr inbounds double, ptr %102, i64 3
  store double %101, ptr %103, align 8, !tbaa !11
  %104 = load ptr, ptr %11, align 8, !tbaa !14
  %105 = icmp ne ptr %104, null
  br i1 %105, label %106, label %177

106:                                              ; preds = %6
  %107 = load ptr, ptr %11, align 8, !tbaa !14
  %108 = call ptr @N_VGetArrayPointer(ptr noundef %107)
  store ptr %108, ptr %15, align 8, !tbaa !16
  %109 = load ptr, ptr %15, align 8, !tbaa !16
  %110 = getelementptr inbounds double, ptr %109, i64 0
  %111 = load double, ptr %110, align 8, !tbaa !11
  store double %111, ptr %24, align 8, !tbaa !11
  %112 = load ptr, ptr %15, align 8, !tbaa !16
  %113 = getelementptr inbounds double, ptr %112, i64 1
  %114 = load double, ptr %113, align 8, !tbaa !11
  store double %114, ptr %25, align 8, !tbaa !11
  %115 = load ptr, ptr %15, align 8, !tbaa !16
  %116 = getelementptr inbounds double, ptr %115, i64 2
  %117 = load double, ptr %116, align 8, !tbaa !11
  store double %117, ptr %26, align 8, !tbaa !11
  %118 = load ptr, ptr %15, align 8, !tbaa !16
  %119 = getelementptr inbounds double, ptr %118, i64 3
  %120 = load double, ptr %119, align 8, !tbaa !11
  store double %120, ptr %27, align 8, !tbaa !11
  %121 = load double, ptr %19, align 8, !tbaa !11
  %122 = load double, ptr %19, align 8, !tbaa !11
  %123 = fmul double %121, %122
  %124 = load double, ptr %24, align 8, !tbaa !11
  %125 = load double, ptr %18, align 8, !tbaa !11
  %126 = load double, ptr %19, align 8, !tbaa !11
  %127 = fmul double %125, %126
  %128 = load double, ptr %25, align 8, !tbaa !11
  %129 = fmul double %127, %128
  %130 = fneg double %129
  %131 = call double @llvm.fmuladd.f64(double %123, double %124, double %130)
  store double %131, ptr %28, align 8, !tbaa !11
  %132 = load double, ptr %18, align 8, !tbaa !11
  %133 = fneg double %132
  %134 = load double, ptr %19, align 8, !tbaa !11
  %135 = fmul double %133, %134
  %136 = load double, ptr %24, align 8, !tbaa !11
  %137 = load double, ptr %18, align 8, !tbaa !11
  %138 = load double, ptr %18, align 8, !tbaa !11
  %139 = fmul double %137, %138
  %140 = load double, ptr %25, align 8, !tbaa !11
  %141 = fmul double %139, %140
  %142 = call double @llvm.fmuladd.f64(double %135, double %136, double %141)
  store double %142, ptr %29, align 8, !tbaa !11
  %143 = load double, ptr %19, align 8, !tbaa !11
  %144 = load double, ptr %19, align 8, !tbaa !11
  %145 = fmul double %143, %144
  %146 = load double, ptr %26, align 8, !tbaa !11
  %147 = load double, ptr %18, align 8, !tbaa !11
  %148 = load double, ptr %19, align 8, !tbaa !11
  %149 = fmul double %147, %148
  %150 = load double, ptr %27, align 8, !tbaa !11
  %151 = fmul double %149, %150
  %152 = fneg double %151
  %153 = call double @llvm.fmuladd.f64(double %145, double %146, double %152)
  store double %153, ptr %30, align 8, !tbaa !11
  %154 = load double, ptr %18, align 8, !tbaa !11
  %155 = fneg double %154
  %156 = load double, ptr %19, align 8, !tbaa !11
  %157 = fmul double %155, %156
  %158 = load double, ptr %26, align 8, !tbaa !11
  %159 = load double, ptr %18, align 8, !tbaa !11
  %160 = load double, ptr %18, align 8, !tbaa !11
  %161 = fmul double %159, %160
  %162 = load double, ptr %27, align 8, !tbaa !11
  %163 = fmul double %161, %162
  %164 = call double @llvm.fmuladd.f64(double %157, double %158, double %163)
  store double %164, ptr %31, align 8, !tbaa !11
  %165 = load double, ptr %28, align 8, !tbaa !11
  %166 = load ptr, ptr %15, align 8, !tbaa !16
  %167 = getelementptr inbounds double, ptr %166, i64 0
  store double %165, ptr %167, align 8, !tbaa !11
  %168 = load double, ptr %29, align 8, !tbaa !11
  %169 = load ptr, ptr %15, align 8, !tbaa !16
  %170 = getelementptr inbounds double, ptr %169, i64 1
  store double %168, ptr %170, align 8, !tbaa !11
  %171 = load double, ptr %30, align 8, !tbaa !11
  %172 = load ptr, ptr %15, align 8, !tbaa !16
  %173 = getelementptr inbounds double, ptr %172, i64 2
  store double %171, ptr %173, align 8, !tbaa !11
  %174 = load double, ptr %31, align 8, !tbaa !11
  %175 = load ptr, ptr %15, align 8, !tbaa !16
  %176 = getelementptr inbounds double, ptr %175, i64 3
  store double %174, ptr %176, align 8, !tbaa !11
  br label %177

177:                                              ; preds = %106, %6
  call void @llvm.lifetime.end.p0(i64 8, ptr %32) #7
  call void @llvm.lifetime.end.p0(i64 8, ptr %31) #7
  call void @llvm.lifetime.end.p0(i64 8, ptr %30) #7
  call void @llvm.lifetime.end.p0(i64 8, ptr %29) #7
  call void @llvm.lifetime.end.p0(i64 8, ptr %28) #7
  call void @llvm.lifetime.end.p0(i64 8, ptr %27) #7
  call void @llvm.lifetime.end.p0(i64 8, ptr %26) #7
  call void @llvm.lifetime.end.p0(i64 8, ptr %25) #7
  call void @llvm.lifetime.end.p0(i64 8, ptr %24) #7
  call void @llvm.lifetime.end.p0(i64 8, ptr %23) #7
  call void @llvm.lifetime.end.p0(i64 8, ptr %22) #7
  call void @llvm.lifetime.end.p0(i64 8, ptr %21) #7
  call void @llvm.lifetime.end.p0(i64 8, ptr %20) #7
  call void @llvm.lifetime.end.p0(i64 8, ptr %19) #7
  call void @llvm.lifetime.end.p0(i64 8, ptr %18) #7
  call void @llvm.lifetime.end.p0(i64 8, ptr %17) #7
  call void @llvm.lifetime.end.p0(i64 8, ptr %16) #7
  call void @llvm.lifetime.end.p0(i64 8, ptr %15) #7
  call void @llvm.lifetime.end.p0(i64 8, ptr %14) #7
  call void @llvm.lifetime.end.p0(i64 8, ptr %13) #7
  ret i32 0
}