; Function Attrs: nounwind uwtable
define internal noundef i32 @proj(double %0, ptr noundef %1, ptr noundef %2, double %3, ptr noundef %4, ptr readnone captures(none) %5) #0 {
  %7 = tail call ptr @N_VGetArrayPointer(ptr noundef %1) #12
  %8 = tail call ptr @N_VGetArrayPointer(ptr noundef %2) #12
  %9 = load double, ptr %7, align 8, !tbaa !13
  %10 = getelementptr inbounds nuw i8, ptr %7, i64 8
  %11 = load double, ptr %10, align 8, !tbaa !13
  %12 = getelementptr inbounds nuw i8, ptr %7, i64 16
  %13 = load double, ptr %12, align 8, !tbaa !13
  %14 = getelementptr inbounds nuw i8, ptr %7, i64 24
  %15 = load double, ptr %14, align 8, !tbaa !13
  %16 = fmul double %11, %11
  %17 = tail call double @llvm.fmuladd.f64(double %9, double %9, double %16)
  %sqrt = tail call double @llvm.sqrt.f64(double %17)
  %18 = fdiv double %9, %sqrt
  %19 = fdiv double %11, %sqrt
  %20 = fmul double %13, %19
  %21 = fmul double %15, %18
  %22 = fneg double %19
  %23 = fmul double %21, %22
  %24 = tail call double @llvm.fmuladd.f64(double %20, double %19, double %23)
  %25 = fneg double %13
  %26 = fmul double %18, %25
  %27 = fmul double %18, %21
  %28 = tail call double @llvm.fmuladd.f64(double %26, double %19, double %27)
  %29 = fsub double %18, %9
  store double %29, ptr %8, align 8, !tbaa !13
  %30 = fsub double %19, %11
  %31 = getelementptr inbounds nuw i8, ptr %8, i64 8
  store double %30, ptr %31, align 8, !tbaa !13
  %32 = fsub double %24, %13
  %33 = getelementptr inbounds nuw i8, ptr %8, i64 16
  store double %32, ptr %33, align 8, !tbaa !13
  %34 = fsub double %28, %15
  %35 = getelementptr inbounds nuw i8, ptr %8, i64 24
  store double %34, ptr %35, align 8, !tbaa !13
  %.not = icmp eq ptr %4, null
  br i1 %.not, label %60, label %36

36:                                               ; preds = %6
  %37 = tail call ptr @N_VGetArrayPointer(ptr noundef nonnull %4) #12
  %38 = load double, ptr %37, align 8, !tbaa !13
  %39 = getelementptr inbounds nuw i8, ptr %37, i64 8
  %40 = load double, ptr %39, align 8, !tbaa !13
  %41 = getelementptr inbounds nuw i8, ptr %37, i64 16
  %42 = load double, ptr %41, align 8, !tbaa !13
  %43 = getelementptr inbounds nuw i8, ptr %37, i64 24
  %44 = load double, ptr %43, align 8, !tbaa !13
  %45 = fmul double %19, %19
  %46 = fmul double %18, %19
  %47 = fneg double %40
  %48 = fmul double %46, %47
  %49 = tail call double @llvm.fmuladd.f64(double %45, double %38, double %48)
  %50 = fneg double %18
  %51 = fmul double %19, %50
  %52 = fmul double %18, %18
  %53 = fmul double %52, %40
  %54 = tail call double @llvm.fmuladd.f64(double %51, double %38, double %53)
  %55 = fneg double %44
  %56 = fmul double %46, %55
  %57 = tail call double @llvm.fmuladd.f64(double %45, double %42, double %56)
  %58 = fmul double %52, %44
  %59 = tail call double @llvm.fmuladd.f64(double %51, double %42, double %58)
  store double %49, ptr %37, align 8, !tbaa !13
  store double %54, ptr %39, align 8, !tbaa !13
  store double %57, ptr %41, align 8, !tbaa !13
  store double %59, ptr %43, align 8, !tbaa !13
  br label %60

60:                                               ; preds = %36, %6
  ret i32 0
}